(dp0
Vengine
p1
Vpdflatex
p2
sVpackages
p3
c__builtin__
set
p4
((lp5
Vbreakurl
p6
aVhyperref
p7
aVmulticol
p8
aVverbatim
p9
aVmdframed
p10
aVamsmath
p11
aVbabel
p12
aVsetspace
p13
aVdcolumn
p14
aVlipsum
p15
aVifpdf
p16
aVcaption
p17
aVgraphicx
p18
aVgeometry
p19
aVinputenc
p20
aVtodonotes
p21
atp22
Rp23
sVfiles_with_guttermarks
p24
g4
((lp25
S'POL41660_syllabus_201819.tex'
p26
atp27
Rp28
sVsynctex
p29
I01
s.